; Function Attrs: mustprogress null_pointer_is_valid sspstrong uwtable
define noundef i32 @_ZN23CaptureCommentTabWidget6addTabEP7QWidget(ptr noundef align 8 dereferenceable_or_null(40) %0, ptr noundef %1) local_unnamed_addr #0 align 2 personality ptr @__gxx_personality_v0 {
  %3 = alloca %class.QString, align 8
  %4 = alloca %class.QString, align 8
  call void @llvm.lifetime.start.p0(i64 24, ptr nonnull %3) #15
  call void @llvm.lifetime.start.p0(i64 24, ptr nonnull %4) #15
  call void @_ZNK11QMetaObject2trEPKcS1_i(ptr dead_on_unwind nonnull writable sret(%class.QString) align 8 %4, ptr noundef nonnull align 8 dereferenceable_or_null(56) @_ZN23CaptureCommentTabWidget16staticMetaObjectE, ptr noundef nonnull @.str, ptr noundef null, i32 noundef -1)
  %5 = invoke noundef i32 @_ZNK10QTabWidget5countEv(ptr noundef align 8 dereferenceable_or_null(40) %0)
          to label %6 unwind label %19

6:                                                ; preds = %2
  %7 = add i32 %5, 1
  %8 = sext i32 %7 to i64
  invoke void @_ZNK7QString3argExii5QChar(ptr dead_on_unwind nonnull writable sret(%class.QString) align 8 %3, ptr noundef nonnull align 8 dereferenceable_or_null(24) %4, i64 noundef %8, i32 noundef 0, i32 noundef 10, i16 32)
          to label %_ZNK7QString3argEiii5QChar.exit unwind label %19

_ZNK7QString3argEiii5QChar.exit:                  ; preds = %6
  %9 = invoke noundef i32 @_ZN10QTabWidget6addTabEP7QWidgetRK7QString(ptr noundef align 8 dereferenceable_or_null(40) %0, ptr noundef %1, ptr noundef nonnull align 8 dereferenceable(24) %3)
          to label %10 unwind label %21

10:                                               ; preds = %_ZNK7QString3argEiii5QChar.exit
  %11 = load ptr, ptr %3, align 8
  %.not.i.i.i = icmp eq ptr %11, null
  br i1 %.not.i.i.i, label %_ZN7QStringD2Ev.exit, label %_ZN17QArrayDataPointerIDsE5derefEv.exit.i.i

_ZN17QArrayDataPointerIDsE5derefEv.exit.i.i:      ; preds = %10
  %12 = atomicrmw sub ptr %11, i32 1 seq_cst, align 4
  %.not.i.i = icmp eq i32 %12, 1
  br i1 %.not.i.i, label %13, label %_ZN7QStringD2Ev.exit

13:                                               ; preds = %_ZN17QArrayDataPointerIDsE5derefEv.exit.i.i
  %14 = load ptr, ptr %3, align 8
  call void @_ZN10QArrayData10deallocateEPS_xx(ptr noundef %14, i64 noundef 2, i64 noundef 8) #15
  br label %_ZN7QStringD2Ev.exit

_ZN7QStringD2Ev.exit:                             ; preds = %10, %_ZN17QArrayDataPointerIDsE5derefEv.exit.i.i, %13
  %15 = load ptr, ptr %4, align 8
  %.not.i.i.i5 = icmp eq ptr %15, null
  br i1 %.not.i.i.i5, label %_ZN7QStringD2Ev.exit8, label %_ZN17QArrayDataPointerIDsE5derefEv.exit.i.i6

_ZN17QArrayDataPointerIDsE5derefEv.exit.i.i6:     ; preds = %_ZN7QStringD2Ev.exit
  %16 = atomicrmw sub ptr %15, i32 1 seq_cst, align 4
  %.not.i.i7 = icmp eq i32 %16, 1
  br i1 %.not.i.i7, label %17, label %_ZN7QStringD2Ev.exit8

17:                                               ; preds = %_ZN17QArrayDataPointerIDsE5derefEv.exit.i.i6
  %18 = load ptr, ptr %4, align 8
  call void @_ZN10QArrayData10deallocateEPS_xx(ptr noundef %18, i64 noundef 2, i64 noundef 8) #15
  br label %_ZN7QStringD2Ev.exit8

_ZN7QStringD2Ev.exit8:                            ; preds = %_ZN7QStringD2Ev.exit, %_ZN17QArrayDataPointerIDsE5derefEv.exit.i.i6, %17
  call void @llvm.lifetime.end.p0(i64 24, ptr nonnull %4) #15
  call void @llvm.lifetime.end.p0(i64 24, ptr nonnull %3) #15
  ret i32 %9

19:                                               ; preds = %6, %2
  %20 = landingpad { ptr, i32 }
          cleanup
  br label %_ZN7QStringD2Ev.exit12

21:                                               ; preds = %_ZNK7QString3argEiii5QChar.exit
  %22 = landingpad { ptr, i32 }
          cleanup
  %23 = load ptr, ptr %3, align 8
  %.not.i.i.i9 = icmp eq ptr %23, null
  br i1 %.not.i.i.i9, label %_ZN7QStringD2Ev.exit12, label %_ZN17QArrayDataPointerIDsE5derefEv.exit.i.i10

_ZN17QArrayDataPointerIDsE5derefEv.exit.i.i10:    ; preds = %21
  %24 = atomicrmw sub ptr %23, i32 1 seq_cst, align 4
  %.not.i.i11 = icmp eq i32 %24, 1
  br i1 %.not.i.i11, label %25, label %_ZN7QStringD2Ev.exit12

25:                                               ; preds = %_ZN17QArrayDataPointerIDsE5derefEv.exit.i.i10
  %26 = load ptr, ptr %3, align 8
  call void @_ZN10QArrayData10deallocateEPS_xx(ptr noundef %26, i64 noundef 2, i64 noundef 8) #15
  br label %_ZN7QStringD2Ev.exit12

_ZN7QStringD2Ev.exit12:                           ; preds = %25, %_ZN17QArrayDataPointerIDsE5derefEv.exit.i.i10, %21, %19
  %.pn = phi { ptr, i32 } [ %20, %19 ], [ %22, %21 ], [ %22, %_ZN17QArrayDataPointerIDsE5derefEv.exit.i.i10 ], [ %22, %25 ]
  %27 = load ptr, ptr %4, align 8
  %.not.i.i.i13 = icmp eq ptr %27, null
  br i1 %.not.i.i.i13, label %_ZN7QStringD2Ev.exit16, label %_ZN17QArrayDataPointerIDsE5derefEv.exit.i.i14

_ZN17QArrayDataPointerIDsE5derefEv.exit.i.i14:    ; preds = %_ZN7QStringD2Ev.exit12
  %28 = atomicrmw sub ptr %27, i32 1 seq_cst, align 4
  %.not.i.i15 = icmp eq i32 %28, 1
  br i1 %.not.i.i15, label %29, label %_ZN7QStringD2Ev.exit16

29:                                               ; preds = %_ZN17QArrayDataPointerIDsE5derefEv.exit.i.i14
  %30 = load ptr, ptr %4, align 8
  call void @_ZN10QArrayData10deallocateEPS_xx(ptr noundef %30, i64 noundef 2, i64 noundef 8) #15
  br label %_ZN7QStringD2Ev.exit16

_ZN7QStringD2Ev.exit16:                           ; preds = %_ZN7QStringD2Ev.exit12, %_ZN17QArrayDataPointerIDsE5derefEv.exit.i.i14, %29
  call void @llvm.lifetime.end.p0(i64 24, ptr nonnull %4) #15
  call void @llvm.lifetime.end.p0(i64 24, ptr nonnull %3) #15
  resume { ptr, i32 } %.pn
}